target datalayout = "e-m:e-p270:32:32-p271:32:32-p272:64:64-i64:64-i128:128-f80:128-n8:16:32:64-S128"
target triple = "x86_64-pc-linux-gnu"

%"class.icu_77::CalendarAstronomer" = type <{ double, double, double, double, double, %"class.icu_77::CalendarAstronomer::Equatorial", i8, [7 x i8] }>
%"class.icu_77::CalendarAstronomer::Equatorial" = type { double, double }

@_ZN6icu_7718CalendarAstronomer13SYNODIC_MONTHE = external constant double, align 8
@_ZL11gMonthCache = internal global ptr null, align 8
@_ZN6icu_7718CalendarAstronomer2PIE = external constant double, align 8

; Function Attrs: mustprogress uwtable
define internal noundef double @_ZN6icu_7712_GLOBAL__N_17moonAgeEd(double noundef %0) #1 personality ptr @__gxx_personality_v0 {
  %2 = alloca double, align 8
  %3 = alloca double, align 8
  %4 = alloca %"class.icu_77::CalendarAstronomer", align 8
  %5 = alloca ptr, align 8
  %6 = alloca i32, align 4
  store double %0, ptr %2, align 8, !tbaa !23
  call void @llvm.lifetime.start.p0(i64 8, ptr %3) #8
  call void @llvm.lifetime.start.p0(i64 64, ptr %4) #8
  %7 = load double, ptr %2, align 8, !tbaa !23
  call void @_ZN6icu_7718CalendarAstronomerC1Ed(ptr noundef nonnull align 8 dereferenceable(57) %4, double noundef %7)
  %8 = invoke noundef double @_ZN6icu_7718CalendarAstronomer10getMoonAgeEv(ptr noundef nonnull align 8 dereferenceable(57) %4)
          to label %9 unwind label %18

9:                                                ; preds = %1
  %10 = fmul double %8, 1.800000e+02
  %11 = load double, ptr @_ZN6icu_7718CalendarAstronomer2PIE, align 8, !tbaa !23
  %12 = fdiv double %10, %11
  call void @_ZN6icu_7718CalendarAstronomerD1Ev(ptr noundef nonnull align 8 dereferenceable(57) %4) #8
  call void @llvm.lifetime.end.p0(i64 64, ptr %4) #8
  store double %12, ptr %3, align 8, !tbaa !23
  %13 = load double, ptr %3, align 8, !tbaa !23
  %14 = fcmp ogt double %13, 1.800000e+02
  br i1 %14, label %15, label %22

15:                                               ; preds = %9
  %16 = load double, ptr %3, align 8, !tbaa !23
  %17 = fsub double %16, 3.600000e+02
  store double %17, ptr %3, align 8, !tbaa !23
  br label %22

18:                                               ; preds = %1
  %19 = landingpad { ptr, i32 }
          cleanup
  %20 = extractvalue { ptr, i32 } %19, 0
  store ptr %20, ptr %5, align 8
  %21 = extractvalue { ptr, i32 } %19, 1
  store i32 %21, ptr %6, align 4
  call void @_ZN6icu_7718CalendarAstronomerD1Ev(ptr noundef nonnull align 8 dereferenceable(57) %4) #8
  call void @llvm.lifetime.end.p0(i64 64, ptr %4) #8
  call void @llvm.lifetime.end.p0(i64 8, ptr %3) #8
  br label %24

22:                                               ; preds = %15, %9
  %23 = load double, ptr %3, align 8, !tbaa !23
  call void @llvm.lifetime.end.p0(i64 8, ptr %3) #8
  ret double %23

24:                                               ; preds = %18
  %25 = load ptr, ptr %5, align 8
  %26 = load i32, ptr %6, align 4
  %27 = insertvalue { ptr, i32 } poison, ptr %25, 0
  %28 = insertvalue { ptr, i32 } %27, i32 %26, 1
  resume { ptr, i32 } %28
}

; Function Attrs: inlinehint mustprogress nounwind uwtable
define internal noundef signext i8 @_ZL9U_SUCCESS10UErrorCode(i32 noundef %0) #4 {
  %2 = alloca i32, align 4
  store i32 %0, ptr %2, align 4, !tbaa !19
  %3 = load i32, ptr %2, align 4, !tbaa !19
  %4 = icmp sle i32 %3, 0
  %5 = zext i1 %4 to i8
  ret i8 %5
}

; Function Attrs: inlinehint mustprogress nounwind uwtable
define internal noundef signext i8 @_ZL9U_FAILURE10UErrorCode(i32 noundef %0) #4 {
  %2 = alloca i32, align 4
  store i32 %0, ptr %2, align 4, !tbaa !19
  %3 = load i32, ptr %2, align 4, !tbaa !19
  %4 = icmp sgt i32 %3, 0
  %5 = zext i1 %4 to i8
  ret i8 %5
}

; Function Attrs: mustprogress uwtable
define internal noundef i32 @_ZN6icu_7712_GLOBAL__N_114trueMonthStartEiR10UErrorCode(i32 noundef %0, ptr noundef nonnull align 4 dereferenceable(4) %1) #1 {
  %3 = alloca i32, align 4
  %4 = alloca i32, align 4
  %5 = alloca ptr, align 8
  %6 = alloca i64, align 8
  %7 = alloca double, align 8
  %8 = alloca double, align 8
  store i32 %0, ptr %4, align 4, !tbaa !17
  store ptr %1, ptr %5, align 8, !tbaa !12
  %9 = load ptr, ptr %5, align 8, !tbaa !12
  %10 = load i32, ptr %9, align 4, !tbaa !19
  %11 = call noundef signext i8 @_ZL9U_FAILURE10UErrorCode(i32 noundef %10)
  %12 = icmp ne i8 %11, 0
  br i1 %12, label %13, label %14

13:                                               ; preds = %2
  store i32 0, ptr %3, align 4
  br label %78

14:                                               ; preds = %2
  call void @ucln_i18n_registerCleanup_77(i32 noundef 8, ptr noundef @_ZL24calendar_islamic_cleanupv)
  call void @llvm.lifetime.start.p0(i64 8, ptr %6) #8
  %15 = load i32, ptr %4, align 4, !tbaa !17
  %16 = load ptr, ptr %5, align 8, !tbaa !12
  %17 = call noundef i32 @_ZN6icu_7713CalendarCache3getEPPS0_iR10UErrorCode(ptr noundef @_ZL11gMonthCache, i32 noundef %15, ptr noundef nonnull align 4 dereferenceable(4) %16)
  %18 = sext i32 %17 to i64
  store i64 %18, ptr %6, align 8, !tbaa !21
  %19 = load ptr, ptr %5, align 8, !tbaa !12
  %20 = load i32, ptr %19, align 4, !tbaa !19
  %21 = call noundef signext i8 @_ZL9U_SUCCESS10UErrorCode(i32 noundef %20)
  %22 = icmp ne i8 %21, 0
  br i1 %22, label %23, label %69

23:                                               ; preds = %14
  %24 = load i64, ptr %6, align 8, !tbaa !21
  %25 = icmp eq i64 %24, 0
  br i1 %25, label %26, label %69

26:                                               ; preds = %23
  call void @llvm.lifetime.start.p0(i64 8, ptr %7) #8
  %27 = load i32, ptr %4, align 4, !tbaa !17
  %28 = sitofp i32 %27 to double
  %29 = load double, ptr @_ZN6icu_7718CalendarAstronomer13SYNODIC_MONTHE, align 8, !tbaa !23
  %30 = fmul double %28, %29
  %31 = call double @uprv_floor_77(double noundef %30)
  %32 = call double @llvm.fmuladd.f64(double %31, double 8.640000e+07, double 0xC2C3562A0CD80000)
  store double %32, ptr %7, align 8, !tbaa !23
  call void @llvm.lifetime.start.p0(i64 8, ptr %8) #8
  %33 = load double, ptr %7, align 8, !tbaa !23
  %34 = call noundef double @_ZN6icu_7712_GLOBAL__N_17moonAgeEd(double noundef %33)
  store double %34, ptr %8, align 8, !tbaa !23
  %35 = load double, ptr %8, align 8, !tbaa !23
  %36 = fcmp oge double %35, 0.000000e+00
  br i1 %36, label %37, label %47

37:                                               ; preds = %26
  br label %38

38:                                               ; preds = %43, %37
  %39 = load double, ptr %7, align 8, !tbaa !23
  %40 = fsub double %39, 8.640000e+07
  store double %40, ptr %7, align 8, !tbaa !23
  %41 = load double, ptr %7, align 8, !tbaa !23
  %42 = call noundef double @_ZN6icu_7712_GLOBAL__N_17moonAgeEd(double noundef %41)
  store double %42, ptr %8, align 8, !tbaa !23
  br label %43

43:                                               ; preds = %38
  %44 = load double, ptr %8, align 8, !tbaa !23
  %45 = fcmp oge double %44, 0.000000e+00
  br i1 %45, label %38, label %46, !llvm.loop !25

46:                                               ; preds = %43
  br label %57

47:                                               ; preds = %26
  br label %48

48:                                               ; preds = %53, %47
  %49 = load double, ptr %7, align 8, !tbaa !23
  %50 = fadd double %49, 8.640000e+07
  store double %50, ptr %7, align 8, !tbaa !23
  %51 = load double, ptr %7, align 8, !tbaa !23
  %52 = call noundef double @_ZN6icu_7712_GLOBAL__N_17moonAgeEd(double noundef %51)
  store double %52, ptr %8, align 8, !tbaa !23
  br label %53

53:                                               ; preds = %48
  %54 = load double, ptr %8, align 8, !tbaa !23
  %55 = fcmp olt double %54, 0.000000e+00
  br i1 %55, label %48, label %56, !llvm.loop !27

56:                                               ; preds = %53
  br label %57

57:                                               ; preds = %56, %46
  %58 = load double, ptr %7, align 8, !tbaa !23
  %59 = fptosi double %58 to i64
  %60 = sitofp i64 %59 to double
  %61 = fsub double %60, 0xC2C3562A0CD80000
  %62 = fptosi double %61 to i64
  %63 = call noundef i64 @_ZN6icu_779ClockMath16floorDivideInt64Ell(i64 noundef %62, i64 noundef 86400000)
  %64 = add nsw i64 %63, 1
  store i64 %64, ptr %6, align 8, !tbaa !21
  %65 = load i32, ptr %4, align 4, !tbaa !17
  %66 = load i64, ptr %6, align 8, !tbaa !21
  %67 = trunc i64 %66 to i32
  %68 = load ptr, ptr %5, align 8, !tbaa !12
  call void @_ZN6icu_7713CalendarCache3putEPPS0_iiR10UErrorCode(ptr noundef @_ZL11gMonthCache, i32 noundef %65, i32 noundef %67, ptr noundef nonnull align 4 dereferenceable(4) %68)
  call void @llvm.lifetime.end.p0(i64 8, ptr %8) #8
  call void @llvm.lifetime.end.p0(i64 8, ptr %7) #8
  br label %69

69:                                               ; preds = %57, %23, %14
  %70 = load ptr, ptr %5, align 8, !tbaa !12
  %71 = load i32, ptr %70, align 4, !tbaa !19
  %72 = call noundef signext i8 @_ZL9U_FAILURE10UErrorCode(i32 noundef %71)
  %73 = icmp ne i8 %72, 0
  br i1 %73, label %74, label %75

74:                                               ; preds = %69
  store i64 0, ptr %6, align 8, !tbaa !21
  br label %75

75:                                               ; preds = %74, %69
  %76 = load i64, ptr %6, align 8, !tbaa !21
  %77 = trunc i64 %76 to i32
  store i32 %77, ptr %3, align 4
  call void @llvm.lifetime.end.p0(i64 8, ptr %6) #8
  br label %78

78:                                               ; preds = %75, %13
  %79 = load i32, ptr %3, align 4
  ret i32 %79
}