; Function Attrs: mustprogress uwtable
define internal fastcc noundef i32 @_ZN6icu_7712_GLOBAL__N_114trueMonthStartEiR10UErrorCode(i32 noundef %0, ptr noundef nonnull align 4 dereferenceable(4) %1) unnamed_addr #1 personality ptr @__gxx_personality_v0 {
  %3 = alloca %"class.icu_77::CalendarAstronomer", align 8
  %4 = alloca %"class.icu_77::CalendarAstronomer", align 8
  %5 = alloca %"class.icu_77::CalendarAstronomer", align 8
  %6 = load i32, ptr %1, align 4, !tbaa !9
  %7 = icmp slt i32 %6, 1
  br i1 %7, label %8, label %56

8:                                                ; preds = %2
  tail call void @ucln_i18n_registerCleanup_77(i32 noundef 8, ptr noundef nonnull @_ZL24calendar_islamic_cleanupv)
  %9 = tail call noundef i32 @_ZN6icu_7713CalendarCache3getEPPS0_iR10UErrorCode(ptr noundef nonnull @_ZL11gMonthCache, i32 noundef %0, ptr noundef nonnull align 4 dereferenceable(4) %1)
  %10 = load i32, ptr %1, align 4, !tbaa !9
  %11 = icmp slt i32 %10, 1
  %12 = icmp eq i32 %9, 0
  %or.cond = and i1 %12, %11
  br i1 %or.cond, label %13, label %53

13:                                               ; preds = %8
  %14 = sitofp i32 %0 to double
  %15 = load double, ptr @_ZN6icu_7718CalendarAstronomer13SYNODIC_MONTHE, align 8, !tbaa !11
  %16 = fmul double %15, %14
  %17 = tail call double @uprv_floor_77(double noundef %16)
  %18 = tail call double @llvm.fmuladd.f64(double %17, double 8.640000e+07, double 0xC2C3562A0CD80000)
  call void @llvm.lifetime.start.p0(i64 64, ptr nonnull %5) #10
  call void @_ZN6icu_7718CalendarAstronomerC1Ed(ptr noundef nonnull align 8 dereferenceable(57) %5, double noundef %18)
  %19 = invoke noundef double @_ZN6icu_7718CalendarAstronomer10getMoonAgeEv(ptr noundef nonnull align 8 dereferenceable(57) %5)
          to label %_ZN6icu_7712_GLOBAL__N_17moonAgeEd.exit unwind label %20

common.resume:                                    ; preds = %39, %30, %20
  %common.resume.op = phi { ptr, i32 } [ %21, %20 ], [ %31, %30 ], [ %40, %39 ]
  resume { ptr, i32 } %common.resume.op

20:                                               ; preds = %13
  %21 = landingpad { ptr, i32 }
          cleanup
  call void @_ZN6icu_7718CalendarAstronomerD1Ev(ptr noundef nonnull align 8 dereferenceable(57) %5) #10
  call void @llvm.lifetime.end.p0(i64 64, ptr nonnull %5) #10
  br label %common.resume

_ZN6icu_7712_GLOBAL__N_17moonAgeEd.exit:          ; preds = %13
  %22 = fmul double %19, 1.800000e+02
  %23 = load double, ptr @_ZN6icu_7718CalendarAstronomer2PIE, align 8, !tbaa !11
  %24 = fdiv double %22, %23
  call void @_ZN6icu_7718CalendarAstronomerD1Ev(ptr noundef nonnull align 8 dereferenceable(57) %5) #10
  call void @llvm.lifetime.end.p0(i64 64, ptr nonnull %5) #10
  %25 = fcmp ogt double %24, 1.800000e+02
  %26 = fadd double %24, -3.600000e+02
  %.0.i = select i1 %25, double %26, double %24
  %27 = fcmp ult double %.0.i, 0.000000e+00
  br i1 %27, label %.preheader, label %.preheader29

.preheader29:                                     ; preds = %_ZN6icu_7712_GLOBAL__N_17moonAgeEd.exit, %_ZN6icu_7712_GLOBAL__N_17moonAgeEd.exit26
  %.0 = phi double [ %28, %_ZN6icu_7712_GLOBAL__N_17moonAgeEd.exit26 ], [ %18, %_ZN6icu_7712_GLOBAL__N_17moonAgeEd.exit ]
  %28 = fadd double %.0, -8.640000e+07
  call void @llvm.lifetime.start.p0(i64 64, ptr nonnull %4) #10
  call void @_ZN6icu_7718CalendarAstronomerC1Ed(ptr noundef nonnull align 8 dereferenceable(57) %4, double noundef %28)
  %29 = invoke noundef double @_ZN6icu_7718CalendarAstronomer10getMoonAgeEv(ptr noundef nonnull align 8 dereferenceable(57) %4)
          to label %_ZN6icu_7712_GLOBAL__N_17moonAgeEd.exit26 unwind label %30

30:                                               ; preds = %.preheader29
  %31 = landingpad { ptr, i32 }
          cleanup
  call void @_ZN6icu_7718CalendarAstronomerD1Ev(ptr noundef nonnull align 8 dereferenceable(57) %4) #10
  call void @llvm.lifetime.end.p0(i64 64, ptr nonnull %4) #10
  br label %common.resume

_ZN6icu_7712_GLOBAL__N_17moonAgeEd.exit26:        ; preds = %.preheader29
  %32 = fmul double %29, 1.800000e+02
  %33 = fdiv double %32, %23
  call void @_ZN6icu_7718CalendarAstronomerD1Ev(ptr noundef nonnull align 8 dereferenceable(57) %4) #10
  call void @llvm.lifetime.end.p0(i64 64, ptr nonnull %4) #10
  %34 = fcmp ogt double %33, 1.800000e+02
  %35 = fadd double %33, -3.600000e+02
  %.0.i25 = select i1 %34, double %35, double %33
  %36 = fcmp ult double %.0.i25, 0.000000e+00
  br i1 %36, label %.loopexit, label %.preheader29, !llvm.loop !13

.preheader:                                       ; preds = %_ZN6icu_7712_GLOBAL__N_17moonAgeEd.exit, %_ZN6icu_7712_GLOBAL__N_17moonAgeEd.exit28
  %.2 = phi double [ %37, %_ZN6icu_7712_GLOBAL__N_17moonAgeEd.exit28 ], [ %18, %_ZN6icu_7712_GLOBAL__N_17moonAgeEd.exit ]
  %37 = fadd double %.2, 8.640000e+07
  call void @llvm.lifetime.start.p0(i64 64, ptr nonnull %3) #10
  call void @_ZN6icu_7718CalendarAstronomerC1Ed(ptr noundef nonnull align 8 dereferenceable(57) %3, double noundef %37)
  %38 = invoke noundef double @_ZN6icu_7718CalendarAstronomer10getMoonAgeEv(ptr noundef nonnull align 8 dereferenceable(57) %3)
          to label %_ZN6icu_7712_GLOBAL__N_17moonAgeEd.exit28 unwind label %39

39:                                               ; preds = %.preheader
  %40 = landingpad { ptr, i32 }
          cleanup
  call void @_ZN6icu_7718CalendarAstronomerD1Ev(ptr noundef nonnull align 8 dereferenceable(57) %3) #10
  call void @llvm.lifetime.end.p0(i64 64, ptr nonnull %3) #10
  br label %common.resume

_ZN6icu_7712_GLOBAL__N_17moonAgeEd.exit28:        ; preds = %.preheader
  %41 = fmul double %38, 1.800000e+02
  %42 = fdiv double %41, %23
  call void @_ZN6icu_7718CalendarAstronomerD1Ev(ptr noundef nonnull align 8 dereferenceable(57) %3) #10
  call void @llvm.lifetime.end.p0(i64 64, ptr nonnull %3) #10
  %43 = fcmp ogt double %42, 1.800000e+02
  %44 = fadd double %42, -3.600000e+02
  %.0.i27 = select i1 %43, double %44, double %42
  %45 = fcmp olt double %.0.i27, 0.000000e+00
  br i1 %45, label %.preheader, label %.loopexit, !llvm.loop !15

.loopexit:                                        ; preds = %_ZN6icu_7712_GLOBAL__N_17moonAgeEd.exit26, %_ZN6icu_7712_GLOBAL__N_17moonAgeEd.exit28
  %.1 = phi double [ %37, %_ZN6icu_7712_GLOBAL__N_17moonAgeEd.exit28 ], [ %28, %_ZN6icu_7712_GLOBAL__N_17moonAgeEd.exit26 ]
  %46 = fptosi double %.1 to i64
  %47 = sitofp i64 %46 to double
  %48 = fadd double %47, 0x42C3562A0CD80000
  %49 = fptosi double %48 to i64
  %50 = call noundef i64 @_ZN6icu_779ClockMath16floorDivideInt64Ell(i64 noundef %49, i64 noundef 86400000)
  %51 = trunc i64 %50 to i32
  %52 = add i32 %51, 1
  call void @_ZN6icu_7713CalendarCache3putEPPS0_iiR10UErrorCode(ptr noundef nonnull @_ZL11gMonthCache, i32 noundef %0, i32 noundef %52, ptr noundef nonnull align 4 dereferenceable(4) %1)
  %.pre = load i32, ptr %1, align 4, !tbaa !9
  br label %53

53:                                               ; preds = %.loopexit, %8
  %54 = phi i32 [ %.pre, %.loopexit ], [ %10, %8 ]
  %.021 = phi i32 [ %52, %.loopexit ], [ %9, %8 ]
  %.inv = icmp sgt i32 %54, 0
  %55 = select i1 %.inv, i32 0, i32 %.021
  br label %56

56:                                               ; preds = %2, %53
  %.023 = phi i32 [ %55, %53 ], [ 0, %2 ]
  ret i32 %.023
}